target datalayout = "e-m:e-p270:32:32-p271:32:32-p272:64:64-i64:64-i128:128-f80:128-n8:16:32:64-S128"
target triple = "x86_64-pc-linux-gnu"

%struct.AVChannelLayout = type { i32, i32, %union.anon.1, ptr }
%union.anon.1 = type { i64 }
%struct.AVFilterLink = type { ptr, ptr, ptr, ptr, i32, i32, i32, i32, %struct.AVRational, i32, i32, i32, %struct.AVChannelLayout, %struct.AVRational, ptr, i32, %struct.AVFilterFormatsConfig, %struct.AVFilterFormatsConfig }
%struct.AVRational = type { i32, i32 }
%struct.AVFilterFormatsConfig = type { ptr, ptr, ptr, ptr, ptr }
%struct.AVFilterContext = type { ptr, ptr, ptr, ptr, ptr, i32, ptr, ptr, i32, ptr, ptr, i32, i32, ptr, ptr, ptr, ptr, i32, ptr, i32, i32 }
%struct.AudioPulsatorContext = type { ptr, i32, double, double, double, double, double, double, double, double, i32, i32, %struct.SimpleLFO, %struct.SimpleLFO }
%struct.SimpleLFO = type { double, double, double, double, double, i32, i32 }

@.str.3 = private unnamed_addr constant [30 x i8] c"Assertion %s failed at %s:%d\0A\00", align 1
@.str.4 = private unnamed_addr constant [2 x i8] c"0\00", align 1
@.str.5 = private unnamed_addr constant [27 x i8] c"libavfilter/af_apulsator.c\00", align 1

; Function Attrs: nounwind uwtable
define internal i32 @config_input(ptr noundef %0) #0 {
  %2 = alloca ptr, align 8
  %3 = alloca ptr, align 8
  %4 = alloca ptr, align 8
  %5 = alloca double, align 8
  store ptr %0, ptr %2, align 8, !tbaa !14
  call void @llvm.lifetime.start.p0(i64 8, ptr %3) #5
  %6 = load ptr, ptr %2, align 8, !tbaa !14
  %7 = getelementptr inbounds nuw %struct.AVFilterLink, ptr %6, i32 0, i32 2
  %8 = load ptr, ptr %7, align 8, !tbaa !18
  store ptr %8, ptr %3, align 8, !tbaa !4
  call void @llvm.lifetime.start.p0(i64 8, ptr %4) #5
  %9 = load ptr, ptr %3, align 8, !tbaa !4
  %10 = getelementptr inbounds nuw %struct.AVFilterContext, ptr %9, i32 0, i32 9
  %11 = load ptr, ptr %10, align 8, !tbaa !37
  store ptr %11, ptr %4, align 8, !tbaa !38
  call void @llvm.lifetime.start.p0(i64 8, ptr %5) #5
  %12 = load ptr, ptr %4, align 8, !tbaa !38
  %13 = getelementptr inbounds nuw %struct.AudioPulsatorContext, ptr %12, i32 0, i32 11
  %14 = load i32, ptr %13, align 4, !tbaa !57
  switch i32 %14, label %31 [
    i32 0, label %15
    i32 1, label %20
    i32 2, label %27
  ]

15:                                               ; preds = %1
  %16 = load ptr, ptr %4, align 8, !tbaa !38
  %17 = getelementptr inbounds nuw %struct.AudioPulsatorContext, ptr %16, i32 0, i32 8
  %18 = load double, ptr %17, align 8, !tbaa !58
  %19 = fdiv nsz double %18, 6.000000e+01
  store double %19, ptr %5, align 8, !tbaa !52
  br label %35

20:                                               ; preds = %1
  %21 = load ptr, ptr %4, align 8, !tbaa !38
  %22 = getelementptr inbounds nuw %struct.AudioPulsatorContext, ptr %21, i32 0, i32 10
  %23 = load i32, ptr %22, align 8, !tbaa !59
  %24 = sitofp i32 %23 to double
  %25 = fdiv nsz double %24, 1.000000e+03
  %26 = fdiv nsz double 1.000000e+00, %25
  store double %26, ptr %5, align 8, !tbaa !52
  br label %35

27:                                               ; preds = %1
  %28 = load ptr, ptr %4, align 8, !tbaa !38
  %29 = getelementptr inbounds nuw %struct.AudioPulsatorContext, ptr %28, i32 0, i32 9
  %30 = load double, ptr %29, align 8, !tbaa !60
  store double %30, ptr %5, align 8, !tbaa !52
  br label %35

31:                                               ; preds = %1
  br label %32

32:                                               ; preds = %31
  call void (ptr, i32, ptr, ...) @av_log(ptr noundef null, i32 noundef 0, ptr noundef @.str.3, ptr noundef @.str.4, ptr noundef @.str.5, i32 noundef 224)
  call void @abort() #6
  unreachable

33:                                               ; No predecessors!
  br label %34

34:                                               ; preds = %33
  br label %35

35:                                               ; preds = %34, %27, %20, %15
  %36 = load double, ptr %5, align 8, !tbaa !52
  %37 = load ptr, ptr %4, align 8, !tbaa !38
  %38 = getelementptr inbounds nuw %struct.AudioPulsatorContext, ptr %37, i32 0, i32 12
  %39 = getelementptr inbounds nuw %struct.SimpleLFO, ptr %38, i32 0, i32 1
  store double %36, ptr %39, align 8, !tbaa !61
  %40 = load double, ptr %5, align 8, !tbaa !52
  %41 = load ptr, ptr %4, align 8, !tbaa !38
  %42 = getelementptr inbounds nuw %struct.AudioPulsatorContext, ptr %41, i32 0, i32 13
  %43 = getelementptr inbounds nuw %struct.SimpleLFO, ptr %42, i32 0, i32 1
  store double %40, ptr %43, align 8, !tbaa !62
  %44 = load ptr, ptr %4, align 8, !tbaa !38
  %45 = getelementptr inbounds nuw %struct.AudioPulsatorContext, ptr %44, i32 0, i32 1
  %46 = load i32, ptr %45, align 8, !tbaa !63
  %47 = load ptr, ptr %4, align 8, !tbaa !38
  %48 = getelementptr inbounds nuw %struct.AudioPulsatorContext, ptr %47, i32 0, i32 12
  %49 = getelementptr inbounds nuw %struct.SimpleLFO, ptr %48, i32 0, i32 5
  store i32 %46, ptr %49, align 8, !tbaa !64
  %50 = load ptr, ptr %4, align 8, !tbaa !38
  %51 = getelementptr inbounds nuw %struct.AudioPulsatorContext, ptr %50, i32 0, i32 1
  %52 = load i32, ptr %51, align 8, !tbaa !63
  %53 = load ptr, ptr %4, align 8, !tbaa !38
  %54 = getelementptr inbounds nuw %struct.AudioPulsatorContext, ptr %53, i32 0, i32 13
  %55 = getelementptr inbounds nuw %struct.SimpleLFO, ptr %54, i32 0, i32 5
  store i32 %52, ptr %55, align 8, !tbaa !65
  %56 = load ptr, ptr %4, align 8, !tbaa !38
  %57 = getelementptr inbounds nuw %struct.AudioPulsatorContext, ptr %56, i32 0, i32 5
  %58 = load double, ptr %57, align 8, !tbaa !66
  %59 = load ptr, ptr %4, align 8, !tbaa !38
  %60 = getelementptr inbounds nuw %struct.AudioPulsatorContext, ptr %59, i32 0, i32 12
  %61 = getelementptr inbounds nuw %struct.SimpleLFO, ptr %60, i32 0, i32 2
  store double %58, ptr %61, align 8, !tbaa !67
  %62 = load ptr, ptr %4, align 8, !tbaa !38
  %63 = getelementptr inbounds nuw %struct.AudioPulsatorContext, ptr %62, i32 0, i32 6
  %64 = load double, ptr %63, align 8, !tbaa !68
  %65 = load ptr, ptr %4, align 8, !tbaa !38
  %66 = getelementptr inbounds nuw %struct.AudioPulsatorContext, ptr %65, i32 0, i32 13
  %67 = getelementptr inbounds nuw %struct.SimpleLFO, ptr %66, i32 0, i32 2
  store double %64, ptr %67, align 8, !tbaa !69
  %68 = load ptr, ptr %2, align 8, !tbaa !14
  %69 = getelementptr inbounds nuw %struct.AVFilterLink, ptr %68, i32 0, i32 11
  %70 = load i32, ptr %69, align 8, !tbaa !70
  %71 = load ptr, ptr %4, align 8, !tbaa !38
  %72 = getelementptr inbounds nuw %struct.AudioPulsatorContext, ptr %71, i32 0, i32 12
  %73 = getelementptr inbounds nuw %struct.SimpleLFO, ptr %72, i32 0, i32 6
  store i32 %70, ptr %73, align 4, !tbaa !71
  %74 = load ptr, ptr %2, align 8, !tbaa !14
  %75 = getelementptr inbounds nuw %struct.AVFilterLink, ptr %74, i32 0, i32 11
  %76 = load i32, ptr %75, align 8, !tbaa !70
  %77 = load ptr, ptr %4, align 8, !tbaa !38
  %78 = getelementptr inbounds nuw %struct.AudioPulsatorContext, ptr %77, i32 0, i32 13
  %79 = getelementptr inbounds nuw %struct.SimpleLFO, ptr %78, i32 0, i32 6
  store i32 %76, ptr %79, align 4, !tbaa !72
  %80 = load ptr, ptr %4, align 8, !tbaa !38
  %81 = getelementptr inbounds nuw %struct.AudioPulsatorContext, ptr %80, i32 0, i32 4
  %82 = load double, ptr %81, align 8, !tbaa !54
  %83 = load ptr, ptr %4, align 8, !tbaa !38
  %84 = getelementptr inbounds nuw %struct.AudioPulsatorContext, ptr %83, i32 0, i32 12
  %85 = getelementptr inbounds nuw %struct.SimpleLFO, ptr %84, i32 0, i32 3
  store double %82, ptr %85, align 8, !tbaa !73
  %86 = load ptr, ptr %4, align 8, !tbaa !38
  %87 = getelementptr inbounds nuw %struct.AudioPulsatorContext, ptr %86, i32 0, i32 4
  %88 = load double, ptr %87, align 8, !tbaa !54
  %89 = load ptr, ptr %4, align 8, !tbaa !38
  %90 = getelementptr inbounds nuw %struct.AudioPulsatorContext, ptr %89, i32 0, i32 13
  %91 = getelementptr inbounds nuw %struct.SimpleLFO, ptr %90, i32 0, i32 3
  store double %88, ptr %91, align 8, !tbaa !74
  %92 = load ptr, ptr %4, align 8, !tbaa !38
  %93 = getelementptr inbounds nuw %struct.AudioPulsatorContext, ptr %92, i32 0, i32 7
  %94 = load double, ptr %93, align 8, !tbaa !75
  %95 = load ptr, ptr %4, align 8, !tbaa !38
  %96 = getelementptr inbounds nuw %struct.AudioPulsatorContext, ptr %95, i32 0, i32 12
  %97 = getelementptr inbounds nuw %struct.SimpleLFO, ptr %96, i32 0, i32 4
  store double %94, ptr %97, align 8, !tbaa !76
  %98 = load ptr, ptr %4, align 8, !tbaa !38
  %99 = getelementptr inbounds nuw %struct.AudioPulsatorContext, ptr %98, i32 0, i32 7
  %100 = load double, ptr %99, align 8, !tbaa !75
  %101 = load ptr, ptr %4, align 8, !tbaa !38
  %102 = getelementptr inbounds nuw %struct.AudioPulsatorContext, ptr %101, i32 0, i32 13
  %103 = getelementptr inbounds nuw %struct.SimpleLFO, ptr %102, i32 0, i32 4
  store double %100, ptr %103, align 8, !tbaa !77
  call void @llvm.lifetime.end.p0(i64 8, ptr %5) #5
  call void @llvm.lifetime.end.p0(i64 8, ptr %4) #5
  call void @llvm.lifetime.end.p0(i64 8, ptr %3) #5
  ret i32 0
}