; Function Attrs: nounwind uwtable
define internal noundef i32 @config_input(ptr noundef readonly captures(none) %0) #0 {
  %2 = getelementptr inbounds nuw i8, ptr %0, i64 16
  %3 = load ptr, ptr %2, align 8, !tbaa !9
  %4 = getelementptr inbounds nuw i8, ptr %3, i64 72
  %5 = load ptr, ptr %4, align 8, !tbaa !33
  %6 = getelementptr inbounds nuw i8, ptr %5, i64 84
  %7 = load i32, ptr %6, align 4, !tbaa !53
  switch i32 %7, label %21 [
    i32 0, label %8
    i32 1, label %12
    i32 2, label %18
  ]

8:                                                ; preds = %1
  %9 = getelementptr inbounds nuw i8, ptr %5, i64 64
  %10 = load double, ptr %9, align 8, !tbaa !54
  %11 = fdiv nsz double %10, 6.000000e+01
  br label %22

12:                                               ; preds = %1
  %13 = getelementptr inbounds nuw i8, ptr %5, i64 80
  %14 = load i32, ptr %13, align 8, !tbaa !55
  %15 = sitofp i32 %14 to double
  %16 = fdiv nsz double %15, 1.000000e+03
  %17 = fdiv nsz double 1.000000e+00, %16
  br label %22

18:                                               ; preds = %1
  %19 = getelementptr inbounds nuw i8, ptr %5, i64 72
  %20 = load double, ptr %19, align 8, !tbaa !56
  br label %22

21:                                               ; preds = %1
  tail call void (ptr, i32, ptr, ...) @av_log(ptr noundef null, i32 noundef 0, ptr noundef nonnull @.str.3, ptr noundef nonnull @.str.4, ptr noundef nonnull @.str.5, i32 noundef 224) #5
  tail call void @abort() #6
  unreachable

22:                                               ; preds = %18, %12, %8
  %.0 = phi nsz double [ %20, %18 ], [ %17, %12 ], [ %11, %8 ]
  %23 = getelementptr inbounds nuw i8, ptr %5, i64 96
  store double %.0, ptr %23, align 8, !tbaa !57
  %24 = getelementptr inbounds nuw i8, ptr %5, i64 144
  store double %.0, ptr %24, align 8, !tbaa !58
  %25 = getelementptr inbounds nuw i8, ptr %5, i64 8
  %26 = load i32, ptr %25, align 8, !tbaa !59
  %27 = getelementptr inbounds nuw i8, ptr %5, i64 128
  store i32 %26, ptr %27, align 8, !tbaa !60
  %28 = getelementptr inbounds nuw i8, ptr %5, i64 176
  store i32 %26, ptr %28, align 8, !tbaa !61
  %29 = getelementptr inbounds nuw i8, ptr %5, i64 40
  %30 = load double, ptr %29, align 8, !tbaa !62
  %31 = getelementptr inbounds nuw i8, ptr %5, i64 104
  store double %30, ptr %31, align 8, !tbaa !63
  %32 = getelementptr inbounds nuw i8, ptr %5, i64 48
  %33 = load double, ptr %32, align 8, !tbaa !64
  %34 = getelementptr inbounds nuw i8, ptr %5, i64 152
  store double %33, ptr %34, align 8, !tbaa !65
  %35 = getelementptr inbounds nuw i8, ptr %0, i64 64
  %36 = load i32, ptr %35, align 8, !tbaa !66
  %37 = getelementptr inbounds nuw i8, ptr %5, i64 132
  store i32 %36, ptr %37, align 4, !tbaa !67
  %38 = getelementptr inbounds nuw i8, ptr %5, i64 180
  store i32 %36, ptr %38, align 4, !tbaa !68
  %39 = getelementptr inbounds nuw i8, ptr %5, i64 32
  %40 = load double, ptr %39, align 8, !tbaa !46
  %41 = getelementptr inbounds nuw i8, ptr %5, i64 112
  store double %40, ptr %41, align 8, !tbaa !69
  %42 = getelementptr inbounds nuw i8, ptr %5, i64 160
  store double %40, ptr %42, align 8, !tbaa !70
  %43 = getelementptr inbounds nuw i8, ptr %5, i64 56
  %44 = load double, ptr %43, align 8, !tbaa !71
  %45 = getelementptr inbounds nuw i8, ptr %5, i64 120
  store double %44, ptr %45, align 8, !tbaa !72
  %46 = getelementptr inbounds nuw i8, ptr %5, i64 168
  store double %44, ptr %46, align 8, !tbaa !73
  ret i32 0
}